target datalayout = "e-m:e-p270:32:32-p271:32:32-p272:64:64-i64:64-i128:128-f80:128-n8:16:32:64-S128"
target triple = "x86_64-pc-linux-gnu"

%struct.slurm_step_id_msg = type { i64, i32, i32, i32 }
%struct.slurm_step_ctx_struct = type { i16, i32, ptr, ptr, ptr, i16 }
%struct.step_launch_state = type { %union.pthread_mutex_t, %union.pthread_cond_t, i32, ptr, ptr, ptr, i64, i8, ptr, i32, i8, i8, i8, i32, ptr, i64, i32, i16, ptr, ptr, ptr, [1 x %struct.mpi_step_info_t], ptr, i32, %struct.slurm_step_launch_callbacks_t }
%union.pthread_mutex_t = type { %struct.__pthread_mutex_s }
%struct.__pthread_mutex_s = type { i32, i32, i32, i32, i32, i16, i16, %struct.__pthread_internal_list }
%struct.__pthread_internal_list = type { ptr, ptr }
%union.pthread_cond_t = type { %struct.__pthread_cond_s }
%struct.__pthread_cond_s = type { %union.__atomic_wide_counter, %union.__atomic_wide_counter, [2 x i32], [2 x i32], i32, i32, [2 x i32] }
%union.__atomic_wide_counter = type { i64 }
%struct.mpi_step_info_t = type { i32, i32, %struct.slurm_step_id_msg, ptr }
%struct.slurm_step_launch_callbacks_t = type { ptr, ptr, ptr, ptr, ptr }

@.str.2 = private unnamed_addr constant [14 x i8] c"step_launch.c\00", align 1
@.str.3 = private unnamed_addr constant [29 x i8] c"%s: pthread_mutex_lock(): %m\00", align 1
@.str.4 = private unnamed_addr constant [31 x i8] c"%s: pthread_mutex_unlock(): %m\00", align 1
@.str.6 = private unnamed_addr constant [39 x i8] c"%s:%d %s: pthread_cond_broadcast(): %m\00", align 1
@__func__.slurm_step_launch_abort = private unnamed_addr constant [24 x i8] c"slurm_step_launch_abort\00", align 1

; Function Attrs: nounwind uwtable
define dso_local void @slurm_step_launch_abort(ptr noundef %0) #0 {
  %2 = alloca ptr, align 8
  %3 = alloca ptr, align 8
  %4 = alloca i32, align 4
  %5 = alloca i32, align 4
  %6 = alloca i32, align 4
  %7 = alloca i32, align 4
  store ptr %0, ptr %2, align 8
  call void @llvm.lifetime.start.p0(i64 8, ptr %3) #10
  %8 = load ptr, ptr %2, align 8
  %9 = icmp ne ptr %8, null
  br i1 %9, label %10, label %16

10:                                               ; preds = %1
  %11 = load ptr, ptr %2, align 8
  %12 = getelementptr inbounds nuw %struct.slurm_step_ctx_struct, ptr %11, i32 0, i32 0
  %13 = load i16, ptr %12, align 8
  %14 = zext i16 %13 to i32
  %15 = icmp ne i32 %14, 51107
  br i1 %15, label %16, label %17

16:                                               ; preds = %10, %1
  store i32 1, ptr %4, align 4
  br label %60

17:                                               ; preds = %10
  %18 = load ptr, ptr %2, align 8
  %19 = getelementptr inbounds nuw %struct.slurm_step_ctx_struct, ptr %18, i32 0, i32 4
  %20 = load ptr, ptr %19, align 8
  store ptr %20, ptr %3, align 8
  br label %21

21:                                               ; preds = %17
  call void @llvm.lifetime.start.p0(i64 4, ptr %5) #10
  %22 = load ptr, ptr %3, align 8
  %23 = getelementptr inbounds nuw %struct.step_launch_state, ptr %22, i32 0, i32 0
  %24 = call i32 @pthread_mutex_lock(ptr noundef %23) #10
  store i32 %24, ptr %5, align 4
  %25 = load i32, ptr %5, align 4
  %26 = icmp ne i32 %25, 0
  br i1 %26, label %27, label %30

27:                                               ; preds = %21
  %28 = load i32, ptr %5, align 4
  %29 = call ptr @__errno_location() #11
  store i32 %28, ptr %29, align 4
  call void (ptr, ...) @fatal_abort(ptr noundef @.str.3, ptr noundef @__func__.slurm_step_launch_abort) #12
  unreachable

30:                                               ; preds = %21
  call void @llvm.lifetime.end.p0(i64 4, ptr %5) #10
  br label %31

31:                                               ; preds = %30
  br label %32

32:                                               ; preds = %31
  %33 = load ptr, ptr %3, align 8
  %34 = getelementptr inbounds nuw %struct.step_launch_state, ptr %33, i32 0, i32 11
  store i8 1, ptr %34, align 1
  br label %35

35:                                               ; preds = %32
  call void @llvm.lifetime.start.p0(i64 4, ptr %6) #10
  %36 = load ptr, ptr %3, align 8
  %37 = getelementptr inbounds nuw %struct.step_launch_state, ptr %36, i32 0, i32 1
  %38 = call i32 @pthread_cond_broadcast(ptr noundef %37) #10
  store i32 %38, ptr %6, align 4
  %39 = load i32, ptr %6, align 4
  %40 = icmp ne i32 %39, 0
  br i1 %40, label %41, label %45

41:                                               ; preds = %35
  %42 = load i32, ptr %6, align 4
  %43 = call ptr @__errno_location() #11
  store i32 %42, ptr %43, align 4
  %44 = call i32 (ptr, ...) @error(ptr noundef @.str.6, ptr noundef @.str.2, i32 noundef 803, ptr noundef @__func__.slurm_step_launch_abort)
  br label %45

45:                                               ; preds = %41, %35
  call void @llvm.lifetime.end.p0(i64 4, ptr %6) #10
  br label %46

46:                                               ; preds = %45
  br label %47

47:                                               ; preds = %46
  br label %48

48:                                               ; preds = %47
  call void @llvm.lifetime.start.p0(i64 4, ptr %7) #10
  %49 = load ptr, ptr %3, align 8
  %50 = getelementptr inbounds nuw %struct.step_launch_state, ptr %49, i32 0, i32 0
  %51 = call i32 @pthread_mutex_unlock(ptr noundef %50) #10
  store i32 %51, ptr %7, align 4
  %52 = load i32, ptr %7, align 4
  %53 = icmp ne i32 %52, 0
  br i1 %53, label %54, label %57

54:                                               ; preds = %48
  %55 = load i32, ptr %7, align 4
  %56 = call ptr @__errno_location() #11
  store i32 %55, ptr %56, align 4
  call void (ptr, ...) @fatal_abort(ptr noundef @.str.4, ptr noundef @__func__.slurm_step_launch_abort) #12
  unreachable

57:                                               ; preds = %48
  call void @llvm.lifetime.end.p0(i64 4, ptr %7) #10
  br label %58

58:                                               ; preds = %57
  br label %59

59:                                               ; preds = %58
  store i32 0, ptr %4, align 4
  br label %60

60:                                               ; preds = %59, %16
  call void @llvm.lifetime.end.p0(i64 8, ptr %3) #10
  %61 = load i32, ptr %4, align 4
  switch i32 %61, label %63 [
    i32 0, label %62
    i32 1, label %62
  ]

62:                                               ; preds = %60, %60
  ret void

63:                                               ; preds = %60
  unreachable
}