; Function Attrs: nounwind uwtable
define dso_local void @slurm_step_launch_abort(ptr noundef readonly captures(address_is_null) %0) local_unnamed_addr #3 {
  %.not = icmp eq ptr %0, null
  br i1 %.not, label %21, label %2

2:                                                ; preds = %1
  %3 = load i16, ptr %0, align 8
  %.not15 = icmp eq i16 %3, -14429
  br i1 %.not15, label %4, label %21

4:                                                ; preds = %2
  %5 = getelementptr inbounds nuw i8, ptr %0, i64 24
  %6 = load ptr, ptr %5, align 8
  %7 = tail call i32 @pthread_mutex_lock(ptr noundef %6) #14
  %.not16 = icmp eq i32 %7, 0
  br i1 %.not16, label %10, label %8

8:                                                ; preds = %4
  %9 = tail call ptr @__errno_location() #15
  store i32 %7, ptr %9, align 4
  tail call void (ptr, ...) @fatal_abort(ptr noundef nonnull @.str.3, ptr noundef nonnull @__func__.slurm_step_launch_abort) #16
  unreachable

10:                                               ; preds = %4
  %11 = getelementptr inbounds nuw i8, ptr %6, i64 149
  store i8 1, ptr %11, align 1
  %12 = getelementptr inbounds nuw i8, ptr %6, i64 40
  %13 = tail call i32 @pthread_cond_broadcast(ptr noundef nonnull %12) #14
  %.not17 = icmp eq i32 %13, 0
  br i1 %.not17, label %17, label %14

14:                                               ; preds = %10
  %15 = tail call ptr @__errno_location() #15
  store i32 %13, ptr %15, align 4
  %16 = tail call i32 (ptr, ...) @error(ptr noundef nonnull @.str.6, ptr noundef nonnull @.str.2, i32 noundef 803, ptr noundef nonnull @__func__.slurm_step_launch_abort) #14
  br label %17

17:                                               ; preds = %14, %10
  %18 = tail call i32 @pthread_mutex_unlock(ptr noundef nonnull %6) #14
  %.not18 = icmp eq i32 %18, 0
  br i1 %.not18, label %21, label %19

19:                                               ; preds = %17
  %20 = tail call ptr @__errno_location() #15
  store i32 %18, ptr %20, align 4
  tail call void (ptr, ...) @fatal_abort(ptr noundef nonnull @.str.4, ptr noundef nonnull @__func__.slurm_step_launch_abort) #16
  unreachable

21:                                               ; preds = %17, %1, %2
  ret void
}